; Function Attrs: mustprogress uwtable
define void @_ZNK8QuantLib29SobolBrownianGeneratorFactory6createEmm(ptr dead_on_unwind noalias writable sret(%"class.boost::shared_ptr.38") align 8 %agg.result, ptr nocapture noundef nonnull readonly align 8 dereferenceable(28) %this, i64 noundef %factors, i64 noundef %steps) unnamed_addr #0 align 2 personality ptr @__gxx_personality_v0 {
entry:
  %call = tail call noalias noundef nonnull dereferenceable(448) ptr @_Znwm(i64 noundef 448) #26
  %ordering_ = getelementptr inbounds nuw i8, ptr %this, i64 8
  %0 = load i32, ptr %ordering_, align 8, !tbaa !109
  %seed_ = getelementptr inbounds nuw i8, ptr %this, i64 16
  %1 = load i64, ptr %seed_, align 8, !tbaa !113
  %integers_ = getelementptr inbounds nuw i8, ptr %this, i64 24
  %2 = load i32, ptr %integers_, align 8, !tbaa !114
  invoke void @_ZN8QuantLib22SobolBrownianGeneratorC1EmmNS_26SobolBrownianGeneratorBase8OrderingEmNS_8SobolRsg17DirectionIntegersE(ptr noundef nonnull align 8 dereferenceable(448) %call, i64 noundef %factors, i64 noundef %steps, i32 noundef %0, i64 noundef %1, i32 noundef %2)
          to label %invoke.cont unwind label %lpad

invoke.cont:                                      ; preds = %entry
  store ptr %call, ptr %agg.result, align 8, !tbaa !115
  %pn.i = getelementptr inbounds nuw i8, ptr %agg.result, i64 8
  store ptr null, ptr %pn.i, align 8, !tbaa !60
  %call.i.i.i = invoke noalias noundef nonnull dereferenceable(24) ptr @_Znwm(i64 noundef 24) #26
          to label %_ZN5boost10shared_ptrIN8QuantLib17BrownianGeneratorEEC2INS1_22SobolBrownianGeneratorEEEPT_.exit unwind label %lpad.i.i.i

lpad.i.i.i:                                       ; preds = %invoke.cont
  %3 = landingpad { ptr, i32 }
          catch ptr null
  %exn.slot.0.i.i.i = extractvalue { ptr, i32 } %3, 0
  %4 = tail call ptr @__cxa_begin_catch(ptr %exn.slot.0.i.i.i) #24
  %vtable.i.i.i.i = load ptr, ptr %call, align 8, !tbaa !3
  %vfn.i.i.i.i = getelementptr inbounds i8, ptr %vtable.i.i.i.i, i64 8
  %5 = load ptr, ptr %vfn.i.i.i.i, align 8
  tail call void %5(ptr noundef nonnull align 8 dereferenceable(448) %call) #24
  invoke void @__cxa_rethrow() #25
          to label %unreachable.i.i.i unwind label %lpad5.i.i.i

lpad5.i.i.i:                                      ; preds = %lpad.i.i.i
  %6 = landingpad { ptr, i32 }
          cleanup
  invoke void @__cxa_end_catch()
          to label %lpad.body.i unwind label %terminate.lpad.i.i.i

terminate.lpad.i.i.i:                             ; preds = %lpad5.i.i.i
  %7 = landingpad { ptr, i32 }
          catch ptr null
  %8 = extractvalue { ptr, i32 } %7, 0
  tail call void @__clang_call_terminate(ptr %8) #28
  unreachable

unreachable.i.i.i:                                ; preds = %lpad.i.i.i
  unreachable

common.resume:                                    ; preds = %lpad, %lpad.body.i
  %common.resume.op = phi { ptr, i32 } [ %6, %lpad.body.i ], [ %9, %lpad ]
  resume { ptr, i32 } %common.resume.op

lpad.body.i:                                      ; preds = %lpad5.i.i.i
  tail call void @_ZN5boost6detail12shared_countD2Ev(ptr noundef nonnull align 8 dereferenceable(8) %pn.i) #24
  br label %common.resume

_ZN5boost10shared_ptrIN8QuantLib17BrownianGeneratorEEC2INS1_22SobolBrownianGeneratorEEEPT_.exit: ; preds = %invoke.cont
  %use_count_.i.i.i.i.i = getelementptr inbounds nuw i8, ptr %call.i.i.i, i64 8
  store i32 1, ptr %use_count_.i.i.i.i.i, align 8, !tbaa !117
  %weak_count_.i.i.i.i.i = getelementptr inbounds nuw i8, ptr %call.i.i.i, i64 12
  store i32 1, ptr %weak_count_.i.i.i.i.i, align 4, !tbaa !119
  store ptr getelementptr inbounds inrange(-16, 56) (i8, ptr @_ZTVN5boost6detail17sp_counted_impl_pIN8QuantLib22SobolBrownianGeneratorEEE, i64 16), ptr %call.i.i.i, align 8, !tbaa !3
  %px_.i.i.i.i = getelementptr inbounds nuw i8, ptr %call.i.i.i, i64 16
  store ptr %call, ptr %px_.i.i.i.i, align 8, !tbaa !120
  store ptr %call.i.i.i, ptr %pn.i, align 8, !tbaa !60
  ret void

lpad:                                             ; preds = %entry
  %9 = landingpad { ptr, i32 }
          cleanup
  tail call void @_ZdlPvm(ptr noundef nonnull %call, i64 noundef 448) #27
  br label %common.resume
}